; Function Attrs: mustprogress nounwind uwtable
define hidden void @_ZN12mpfx_managerD2Ev(ptr noundef nonnull align 8 dereferenceable(85) %0) unnamed_addr #4 align 2 personality ptr @__gxx_personality_v0 {
  %2 = getelementptr inbounds nuw i8, ptr %0, i64 80
  %3 = load i32, ptr %2, align 8
  %.not.i = icmp ult i32 %3, 2
  br i1 %.not.i, label %_ZN12mpfx_manager3delER4mpfx.exit, label %4

4:                                                ; preds = %1
  %5 = lshr i32 %3, 1
  %6 = invoke noundef zeroext i1 @_ZN6memory16is_out_of_memoryEv()
          to label %.noexc unwind label %79

.noexc:                                           ; preds = %4
  br i1 %6, label %_ZN6id_gen7recycleEj.exit.i, label %7

7:                                                ; preds = %.noexc
  %8 = getelementptr inbounds nuw i8, ptr %0, i64 40
  %9 = load ptr, ptr %8, align 8, !tbaa !3
  %10 = icmp eq ptr %9, null
  br i1 %10, label %17, label %11

11:                                               ; preds = %7
  %12 = getelementptr inbounds i8, ptr %9, i64 -4
  %13 = load i32, ptr %12, align 4, !tbaa !22
  %14 = getelementptr inbounds i8, ptr %9, i64 -8
  %15 = load i32, ptr %14, align 4, !tbaa !22
  %16 = icmp eq i32 %13, %15
  br i1 %16, label %17, label %_ZN6vectorIjLb0EjE9push_backERKj.exit.i.i

17:                                               ; preds = %11, %7
  invoke void @_ZN6vectorIjLb0EjE13expand_vectorEv(ptr noundef nonnull align 8 dereferenceable(8) %8)
          to label %.noexc1 unwind label %79

.noexc1:                                          ; preds = %17
  %.pre.i.i.i = load ptr, ptr %8, align 8, !tbaa !3
  %.phi.trans.insert.i.i.i = getelementptr inbounds i8, ptr %.pre.i.i.i, i64 -4
  %.pre2.i.i.i = load i32, ptr %.phi.trans.insert.i.i.i, align 4, !tbaa !22
  br label %_ZN6vectorIjLb0EjE9push_backERKj.exit.i.i

_ZN6vectorIjLb0EjE9push_backERKj.exit.i.i:        ; preds = %.noexc1, %11
  %18 = phi i32 [ %.pre2.i.i.i, %.noexc1 ], [ %13, %11 ]
  %19 = phi ptr [ %.pre.i.i.i, %.noexc1 ], [ %9, %11 ]
  %20 = getelementptr inbounds i8, ptr %19, i64 -4
  %21 = zext i32 %18 to i64
  %22 = getelementptr inbounds nuw i32, ptr %19, i64 %21
  store i32 %5, ptr %22, align 4, !tbaa !22
  %23 = add i32 %18, 1
  store i32 %23, ptr %20, align 4, !tbaa !22
  br label %_ZN6id_gen7recycleEj.exit.i

_ZN6id_gen7recycleEj.exit.i:                      ; preds = %_ZN6vectorIjLb0EjE9push_backERKj.exit.i.i, %.noexc
  %24 = getelementptr inbounds nuw i8, ptr %0, i64 16
  %25 = load ptr, ptr %24, align 8, !tbaa !3
  %26 = load i32, ptr %2, align 8
  %27 = lshr i32 %26, 1
  %28 = getelementptr inbounds nuw i8, ptr %0, i64 8
  %29 = load i32, ptr %28, align 8, !tbaa !19
  %30 = mul i32 %27, %29
  %31 = zext i32 %30 to i64
  %32 = getelementptr inbounds nuw i32, ptr %25, i64 %31
  %.not10.i = icmp eq i32 %29, 0
  br i1 %.not10.i, label %_ZN12mpfx_manager3delER4mpfx.exit, label %.lr.ph.i

.lr.ph.i:                                         ; preds = %_ZN6id_gen7recycleEj.exit.i, %.lr.ph.i
  %indvars.iv.i = phi i64 [ %indvars.iv.next.i, %.lr.ph.i ], [ 0, %_ZN6id_gen7recycleEj.exit.i ]
  %33 = getelementptr inbounds nuw i32, ptr %32, i64 %indvars.iv.i
  store i32 0, ptr %33, align 4, !tbaa !22
  %indvars.iv.next.i = add nuw nsw i64 %indvars.iv.i, 1
  %34 = load i32, ptr %28, align 8, !tbaa !19
  %35 = zext i32 %34 to i64
  %36 = icmp samesign ult i64 %indvars.iv.next.i, %35
  br i1 %36, label %.lr.ph.i, label %_ZN12mpfx_manager3delER4mpfx.exit, !llvm.loop !26

_ZN12mpfx_manager3delER4mpfx.exit:                ; preds = %.lr.ph.i, %_ZN6id_gen7recycleEj.exit.i, %1
  %37 = getelementptr inbounds nuw i8, ptr %0, i64 72
  %38 = load ptr, ptr %37, align 8, !tbaa !3
  %.not.i.i = icmp eq ptr %38, null
  br i1 %.not.i.i, label %_ZN6vectorIjLb0EjED2Ev.exit, label %39

39:                                               ; preds = %_ZN12mpfx_manager3delER4mpfx.exit
  %40 = getelementptr inbounds i8, ptr %38, i64 -8
  invoke void @_ZN6memory10deallocateEPv(ptr noundef nonnull %40)
          to label %_ZN6vectorIjLb0EjED2Ev.exit unwind label %41

41:                                               ; preds = %39
  %42 = landingpad { ptr, i32 }
          catch ptr null
  %43 = extractvalue { ptr, i32 } %42, 0
  tail call void @__clang_call_terminate(ptr %43) #25
  unreachable

_ZN6vectorIjLb0EjED2Ev.exit:                      ; preds = %_ZN12mpfx_manager3delER4mpfx.exit, %39
  %44 = getelementptr inbounds nuw i8, ptr %0, i64 64
  %45 = load ptr, ptr %44, align 8, !tbaa !3
  %.not.i.i2 = icmp eq ptr %45, null
  br i1 %.not.i.i2, label %_ZN6vectorIjLb0EjED2Ev.exit3, label %46

46:                                               ; preds = %_ZN6vectorIjLb0EjED2Ev.exit
  %47 = getelementptr inbounds i8, ptr %45, i64 -8
  invoke void @_ZN6memory10deallocateEPv(ptr noundef nonnull %47)
          to label %_ZN6vectorIjLb0EjED2Ev.exit3 unwind label %48

48:                                               ; preds = %46
  %49 = landingpad { ptr, i32 }
          catch ptr null
  %50 = extractvalue { ptr, i32 } %49, 0
  tail call void @__clang_call_terminate(ptr %50) #25
  unreachable

_ZN6vectorIjLb0EjED2Ev.exit3:                     ; preds = %_ZN6vectorIjLb0EjED2Ev.exit, %46
  %51 = getelementptr inbounds nuw i8, ptr %0, i64 56
  %52 = load ptr, ptr %51, align 8, !tbaa !3
  %.not.i.i4 = icmp eq ptr %52, null
  br i1 %.not.i.i4, label %_ZN6vectorIjLb0EjED2Ev.exit5, label %53

53:                                               ; preds = %_ZN6vectorIjLb0EjED2Ev.exit3
  %54 = getelementptr inbounds i8, ptr %52, i64 -8
  invoke void @_ZN6memory10deallocateEPv(ptr noundef nonnull %54)
          to label %_ZN6vectorIjLb0EjED2Ev.exit5 unwind label %55

55:                                               ; preds = %53
  %56 = landingpad { ptr, i32 }
          catch ptr null
  %57 = extractvalue { ptr, i32 } %56, 0
  tail call void @__clang_call_terminate(ptr %57) #25
  unreachable

_ZN6vectorIjLb0EjED2Ev.exit5:                     ; preds = %_ZN6vectorIjLb0EjED2Ev.exit3, %53
  %58 = getelementptr inbounds nuw i8, ptr %0, i64 48
  %59 = load ptr, ptr %58, align 8, !tbaa !3
  %.not.i.i6 = icmp eq ptr %59, null
  br i1 %.not.i.i6, label %_ZN6vectorIjLb0EjED2Ev.exit7, label %60

60:                                               ; preds = %_ZN6vectorIjLb0EjED2Ev.exit5
  %61 = getelementptr inbounds i8, ptr %59, i64 -8
  invoke void @_ZN6memory10deallocateEPv(ptr noundef nonnull %61)
          to label %_ZN6vectorIjLb0EjED2Ev.exit7 unwind label %62

62:                                               ; preds = %60
  %63 = landingpad { ptr, i32 }
          catch ptr null
  %64 = extractvalue { ptr, i32 } %63, 0
  tail call void @__clang_call_terminate(ptr %64) #25
  unreachable

_ZN6vectorIjLb0EjED2Ev.exit7:                     ; preds = %_ZN6vectorIjLb0EjED2Ev.exit5, %60
  %65 = getelementptr inbounds nuw i8, ptr %0, i64 40
  %66 = load ptr, ptr %65, align 8, !tbaa !3
  %.not.i.i.i = icmp eq ptr %66, null
  br i1 %.not.i.i.i, label %_ZN6id_genD2Ev.exit, label %67

67:                                               ; preds = %_ZN6vectorIjLb0EjED2Ev.exit7
  %68 = getelementptr inbounds i8, ptr %66, i64 -8
  invoke void @_ZN6memory10deallocateEPv(ptr noundef nonnull %68)
          to label %_ZN6id_genD2Ev.exit unwind label %69

69:                                               ; preds = %67
  %70 = landingpad { ptr, i32 }
          catch ptr null
  %71 = extractvalue { ptr, i32 } %70, 0
  tail call void @__clang_call_terminate(ptr %71) #25
  unreachable

_ZN6id_genD2Ev.exit:                              ; preds = %_ZN6vectorIjLb0EjED2Ev.exit7, %67
  %72 = getelementptr inbounds nuw i8, ptr %0, i64 16
  %73 = load ptr, ptr %72, align 8, !tbaa !3
  %.not.i.i8 = icmp eq ptr %73, null
  br i1 %.not.i.i8, label %_ZN6vectorIjLb0EjED2Ev.exit9, label %74

74:                                               ; preds = %_ZN6id_genD2Ev.exit
  %75 = getelementptr inbounds i8, ptr %73, i64 -8
  invoke void @_ZN6memory10deallocateEPv(ptr noundef nonnull %75)
          to label %_ZN6vectorIjLb0EjED2Ev.exit9 unwind label %76

76:                                               ; preds = %74
  %77 = landingpad { ptr, i32 }
          catch ptr null
  %78 = extractvalue { ptr, i32 } %77, 0
  tail call void @__clang_call_terminate(ptr %78) #25
  unreachable

_ZN6vectorIjLb0EjED2Ev.exit9:                     ; preds = %_ZN6id_genD2Ev.exit, %74
  ret void

79:                                               ; preds = %17, %4
  %80 = landingpad { ptr, i32 }
          catch ptr null
  %81 = extractvalue { ptr, i32 } %80, 0
  tail call void @__clang_call_terminate(ptr %81) #25
  unreachable
}